TN:
SF:/home/kuzz/ImageMagickFuzzing/delegate_libraries/Imath-3.1.9/build/CMakeFiles/3.28.3/CompilerIdC/CMakeCCompilerId.c
FN:853,878,main
FNDA:0,main
FNF:1
FNH:0
DA:853,0
DA:856,0
DA:857,0
DA:858,0
DA:859,0
DA:861,0
DA:875,0
DA:876,0
DA:877,0
DA:878,0
LF:10
LH:0
end_of_record
TN:
SF:/home/kuzz/ImageMagickFuzzing/delegate_libraries/Imath-3.1.9/build/CMakeFiles/3.28.3/CompilerIdCXX/CMakeCXXCompilerId.cpp
FN:844,868,main
FNDA:0,main
FNF:1
FNH:0
DA:844,0
DA:846,0
DA:847,0
DA:848,0
DA:849,0
DA:851,0
DA:865,0
DA:866,0
DA:868,0
LF:9
LH:0
end_of_record
TN:
SF:/home/kuzz/ImageMagickFuzzing/delegate_libraries/Imath-3.1.9/src/Imath/ImathColor.h
FN:481,487,_ZN9Imath_3_16Color4IdEC2Edddd
FNDA:0,_ZN9Imath_3_16Color4IdEC2Edddd
FNF:1
FNH:0
DA:481,0
DA:483,0
DA:484,0
DA:485,0
DA:486,0
DA:487,0
LF:6
LH:0
end_of_record
TN:
SF:/home/kuzz/ImageMagickFuzzing/delegate_libraries/Imath-3.1.9/src/Imath/ImathColorAlgo.cpp
FN:131,164,_ZN9Imath_3_19rgb2hsv_dERKNS_4Vec3IdEE
FN:167,200,_ZN9Imath_3_19rgb2hsv_dERKNS_6Color4IdEE
FN:17,71,_ZN9Imath_3_19hsv2rgb_dERKNS_4Vec3IdEE
FN:74,128,_ZN9Imath_3_19hsv2rgb_dERKNS_6Color4IdEE
FNDA:0,_ZN9Imath_3_19rgb2hsv_dERKNS_4Vec3IdEE
FNDA:0,_ZN9Imath_3_19rgb2hsv_dERKNS_6Color4IdEE
FNDA:0,_ZN9Imath_3_19hsv2rgb_dERKNS_4Vec3IdEE
FNDA:0,_ZN9Imath_3_19hsv2rgb_dERKNS_6Color4IdEE
FNF:4
FNH:0
DA:17,0
DA:19,0
DA:20,0
DA:21,0
DA:23,0
DA:25,0
DA:26,0
DA:28,0
DA:30,0
DA:31,0
DA:32,0
DA:33,0
DA:34,0
DA:36,0
DA:39,0
DA:40,0
DA:41,0
DA:42,0
DA:44,0
DA:45,0
DA:46,0
DA:47,0
DA:49,0
DA:50,0
DA:51,0
DA:52,0
DA:54,0
DA:55,0
DA:56,0
DA:57,0
DA:59,0
DA:60,0
DA:61,0
DA:62,0
DA:64,0
DA:65,0
DA:66,0
DA:67,0
DA:70,0
DA:71,0
DA:74,0
DA:76,0
DA:77,0
DA:78,0
DA:80,0
DA:82,0
DA:83,0
DA:85,0
DA:87,0
DA:88,0
DA:89,0
DA:90,0
DA:91,0
DA:93,0
DA:96,0
DA:97,0
DA:98,0
DA:99,0
DA:101,0
DA:102,0
DA:103,0
DA:104,0
DA:106,0
DA:107,0
DA:108,0
DA:109,0
DA:111,0
DA:112,0
DA:113,0
DA:114,0
DA:116,0
DA:117,0
DA:118,0
DA:119,0
DA:121,0
DA:122,0
DA:123,0
DA:124,0
DA:127,0
DA:128,0
DA:131,0
DA:133,0
DA:134,0
DA:135,0
DA:137,0
DA:138,0
DA:139,0
DA:140,0
DA:141,0
DA:142,0
DA:144,0
DA:145,0
DA:147,0
DA:149,0
DA:151,0
DA:152,0
DA:153,0
DA:154,0
DA:156,0
DA:158,0
DA:160,0
DA:161,0
DA:162,0
DA:163,0
DA:164,0
DA:167,0
DA:169,0
DA:170,0
DA:171,0
DA:173,0
DA:174,0
DA:175,0
DA:176,0
DA:177,0
DA:178,0
DA:180,0
DA:181,0
DA:183,0
DA:185,0
DA:187,0
DA:188,0
DA:189,0
DA:190,0
DA:192,0
DA:194,0
DA:196,0
DA:197,0
DA:198,0
DA:199,0
DA:200,0
LF:130
LH:0
end_of_record
TN:
SF:/home/kuzz/ImageMagickFuzzing/delegate_libraries/Imath-3.1.9/src/Imath/ImathFun.cpp
FN:11,46,_ZN9Imath_3_15succfEf
FN:125,160,_ZN9Imath_3_15preddEd
FN:49,84,_ZN9Imath_3_15predfEf
FN:87,122,_ZN9Imath_3_15succdEd
FNDA:0,_ZN9Imath_3_15succfEf
FNDA:0,_ZN9Imath_3_15preddEd
FNDA:0,_ZN9Imath_3_15predfEf
FNDA:0,_ZN9Imath_3_15succdEd
FNF:4
FNH:0
DA:11,0
DA:13,0
DA:18,0
DA:20,0
DA:23,0
DA:24,0
DA:28,0
DA:29,0
DA:30,0
DA:36,0
DA:37,0
DA:42,0
DA:45,0
DA:46,0
DA:49,0
DA:51,0
DA:56,0
DA:58,0
DA:61,0
DA:62,0
DA:66,0
DA:67,0
DA:68,0
DA:72,0
DA:73,0
DA:80,0
DA:83,0
DA:84,0
DA:87,0
DA:89,0
DA:94,0
DA:96,0
DA:99,0
DA:100,0
DA:104,0
DA:105,0
DA:106,0
DA:112,0
DA:113,0
DA:118,0
DA:121,0
DA:122,0
DA:125,0
DA:127,0
DA:132,0
DA:134,0
DA:137,0
DA:138,0
DA:142,0
DA:143,0
DA:144,0
DA:148,0
DA:149,0
DA:156,0
DA:159,0
DA:160,0
LF:56
LH:0
end_of_record
TN:
SF:/home/kuzz/ImageMagickFuzzing/delegate_libraries/Imath-3.1.9/src/Imath/ImathMatrix.h
FN:1054,1054,_ZN9Imath_3_18Matrix44IdE10dimensionsEv
FN:1054,1054,_ZN9Imath_3_18Matrix44IfE10dimensionsEv
FN:1743,1745,_ZN9Imath_3_18Matrix33IdEixEi
FN:1743,1745,_ZN9Imath_3_18Matrix33IfEixEi
FN:1750,1752,_ZNK9Imath_3_18Matrix33IdEixEi
FN:1750,1752,_ZNK9Imath_3_18Matrix33IfEixEi
FN:1757,1768,_ZN9Imath_3_18Matrix33IdEC2Ev
FN:1757,1768,_ZN9Imath_3_18Matrix33IfEC2Ev
FN:1770,1781,_ZN9Imath_3_18Matrix33IdEC2Ed
FN:1803,1814,_ZN9Imath_3_18Matrix33IdEC2Eddddddddd
FN:1817,1832,_ZN9Imath_3_18Matrix33IdEC2ERKS1_
FN:1817,1832,_ZN9Imath_3_18Matrix33IfEC2ERKS1_
FN:1951,1962,_ZN9Imath_3_18Matrix33IdE12makeIdentityEv
FN:1951,1962,_ZN9Imath_3_18Matrix33IfE12makeIdentityEv
FN:2008,2020,_ZN9Imath_3_18Matrix33IdEpLERKS1_
FN:2202,2220,_ZNK9Imath_3_18Matrix33IdEmlERKS1_
FN:2295,2305,_ZNK9Imath_3_18Matrix33IdE10transposedEv
FN:2779,2783,_ZNK9Imath_3_18Matrix33IdE11determinantEv
FN:2779,2783,_ZNK9Imath_3_18Matrix33IfE11determinantEv
FN:3011,3013,_ZN9Imath_3_18Matrix44IdEixEi
FN:3011,3013,_ZN9Imath_3_18Matrix44IfEixEi
FN:3018,3020,_ZNK9Imath_3_18Matrix44IdEixEi
FN:3018,3020,_ZNK9Imath_3_18Matrix44IfEixEi
FN:3023,3041,_ZN9Imath_3_18Matrix44IdEC2Ev
FN:3023,3041,_ZN9Imath_3_18Matrix44IfEC2Ev
FN:3087,3105,_ZN9Imath_3_18Matrix44IdEC2Edddddddddddddddd
FN:3127,3145,_ZN9Imath_3_18Matrix44IdEC2ERKS1_
FN:3127,3145,_ZN9Imath_3_18Matrix44IfEC2ERKS1_
FN:3302,3320,_ZN9Imath_3_18Matrix44IdE12makeIdentityEv
FN:3302,3320,_ZN9Imath_3_18Matrix44IfE12makeIdentityEv
FN:342,342,_ZN9Imath_3_18Matrix33IdEC2ENS_13UninitializedE
FN:4179,4188,_ZNK9Imath_3_18Matrix44IdE9fastMinorEiiiiii
FN:4179,4188,_ZNK9Imath_3_18Matrix44IfE9fastMinorEiiiiii
FN:4217,4231,_ZNK9Imath_3_18Matrix44IdE11determinantEv
FN:4217,4231,_ZNK9Imath_3_18Matrix44IfE11determinantEv
FN:4758,4765,_ZN9Imath_3_1mlIddEENS_4Vec3IT_EERKS3_RKNS_8Matrix33IT0_EE
FN:653,653,_ZN9Imath_3_18Matrix33IdE10dimensionsEv
FN:653,653,_ZN9Imath_3_18Matrix33IfE10dimensionsEv
FNDA:0,_ZN9Imath_3_18Matrix44IdE10dimensionsEv
FNDA:0,_ZN9Imath_3_18Matrix44IfE10dimensionsEv
FNDA:0,_ZN9Imath_3_18Matrix33IdEixEi
FNDA:0,_ZN9Imath_3_18Matrix33IfEixEi
FNDA:0,_ZNK9Imath_3_18Matrix33IdEixEi
FNDA:0,_ZNK9Imath_3_18Matrix33IfEixEi
FNDA:0,_ZN9Imath_3_18Matrix33IdEC2Ev
FNDA:0,_ZN9Imath_3_18Matrix33IfEC2Ev
FNDA:0,_ZN9Imath_3_18Matrix33IdEC2Ed
FNDA:0,_ZN9Imath_3_18Matrix33IdEC2Eddddddddd
FNDA:0,_ZN9Imath_3_18Matrix33IdEC2ERKS1_
FNDA:0,_ZN9Imath_3_18Matrix33IfEC2ERKS1_
FNDA:0,_ZN9Imath_3_18Matrix33IdE12makeIdentityEv
FNDA:0,_ZN9Imath_3_18Matrix33IfE12makeIdentityEv
FNDA:0,_ZN9Imath_3_18Matrix33IdEpLERKS1_
FNDA:0,_ZNK9Imath_3_18Matrix33IdEmlERKS1_
FNDA:0,_ZNK9Imath_3_18Matrix33IdE10transposedEv
FNDA:0,_ZNK9Imath_3_18Matrix33IdE11determinantEv
FNDA:0,_ZNK9Imath_3_18Matrix33IfE11determinantEv
FNDA:0,_ZN9Imath_3_18Matrix44IdEixEi
FNDA:0,_ZN9Imath_3_18Matrix44IfEixEi
FNDA:0,_ZNK9Imath_3_18Matrix44IdEixEi
FNDA:0,_ZNK9Imath_3_18Matrix44IfEixEi
FNDA:0,_ZN9Imath_3_18Matrix44IdEC2Ev
FNDA:0,_ZN9Imath_3_18Matrix44IfEC2Ev
FNDA:0,_ZN9Imath_3_18Matrix44IdEC2Edddddddddddddddd
FNDA:0,_ZN9Imath_3_18Matrix44IdEC2ERKS1_
FNDA:0,_ZN9Imath_3_18Matrix44IfEC2ERKS1_
FNDA:0,_ZN9Imath_3_18Matrix44IdE12makeIdentityEv
FNDA:0,_ZN9Imath_3_18Matrix44IfE12makeIdentityEv
FNDA:0,_ZN9Imath_3_18Matrix33IdEC2ENS_13UninitializedE
FNDA:0,_ZNK9Imath_3_18Matrix44IdE9fastMinorEiiiiii
FNDA:0,_ZNK9Imath_3_18Matrix44IfE9fastMinorEiiiiii
FNDA:0,_ZNK9Imath_3_18Matrix44IdE11determinantEv
FNDA:0,_ZNK9Imath_3_18Matrix44IfE11determinantEv
FNDA:0,_ZN9Imath_3_1mlIddEENS_4Vec3IT_EERKS3_RKNS_8Matrix33IT0_EE
FNDA:0,_ZN9Imath_3_18Matrix33IdE10dimensionsEv
FNDA:0,_ZN9Imath_3_18Matrix33IfE10dimensionsEv
FNF:38
FNH:0
DA:342,0
DA:653,0
DA:1054,0
DA:1743,0
DA:1745,0
DA:1750,0
DA:1752,0
DA:1757,0
DA:1759,0
DA:1760,0
DA:1761,0
DA:1762,0
DA:1763,0
DA:1764,0
DA:1765,0
DA:1766,0
DA:1767,0
DA:1768,0
DA:1770,0
DA:1772,0
DA:1773,0
DA:1774,0
DA:1775,0
DA:1776,0
DA:1777,0
DA:1778,0
DA:1779,0
DA:1780,0
DA:1781,0
DA:1803,0
DA:1805,0
DA:1806,0
DA:1807,0
DA:1808,0
DA:1809,0
DA:1810,0
DA:1811,0
DA:1812,0
DA:1813,0
DA:1814,0
DA:1817,0
DA:1823,0
DA:1824,0
DA:1825,0
DA:1826,0
DA:1827,0
DA:1828,0
DA:1829,0
DA:1830,0
DA:1831,0
DA:1832,0
DA:1951,0
DA:1953,0
DA:1954,0
DA:1955,0
DA:1956,0
DA:1957,0
DA:1958,0
DA:1959,0
DA:1960,0
DA:1961,0
DA:1962,0
DA:2008,0
DA:2010,0
DA:2011,0
DA:2012,0
DA:2013,0
DA:2014,0
DA:2015,0
DA:2016,0
DA:2017,0
DA:2018,0
DA:2020,0
DA:2202,0
DA:2206,0
DA:2208,0
DA:2209,0
DA:2210,0
DA:2212,0
DA:2213,0
DA:2214,0
DA:2216,0
DA:2217,0
DA:2218,0
DA:2220,0
DA:2295,0
DA:2297,0
DA:2298,0
DA:2299,0
DA:2300,0
DA:2301,0
DA:2302,0
DA:2303,0
DA:2304,0
DA:2305,0
DA:2779,0
DA:2781,0
DA:2782,0
DA:2783,0
DA:3011,0
DA:3013,0
DA:3018,0
DA:3020,0
DA:3023,0
DA:3025,0
DA:3026,0
DA:3027,0
DA:3028,0
DA:3029,0
DA:3030,0
DA:3031,0
DA:3032,0
DA:3033,0
DA:3034,0
DA:3035,0
DA:3036,0
DA:3037,0
DA:3038,0
DA:3039,0
DA:3040,0
DA:3041,0
DA:3087,0
DA:3089,0
DA:3090,0
DA:3091,0
DA:3092,0
DA:3093,0
DA:3094,0
DA:3095,0
DA:3096,0
DA:3097,0
DA:3098,0
DA:3099,0
DA:3100,0
DA:3101,0
DA:3102,0
DA:3103,0
DA:3104,0
DA:3105,0
DA:3127,0
DA:3129,0
DA:3130,0
DA:3131,0
DA:3132,0
DA:3133,0
DA:3134,0
DA:3135,0
DA:3136,0
DA:3137,0
DA:3138,0
DA:3139,0
DA:3140,0
DA:3141,0
DA:3142,0
DA:3143,0
DA:3144,0
DA:3145,0
DA:3302,0
DA:3304,0
DA:3305,0
DA:3306,0
DA:3307,0
DA:3308,0
DA:3309,0
DA:3310,0
DA:3311,0
DA:3312,0
DA:3313,0
DA:3314,0
DA:3315,0
DA:3316,0
DA:3317,0
DA:3318,0
DA:3319,0
DA:3320,0
DA:4179,0
DA:4186,0
DA:4187,0
DA:4188,0
DA:4217,0
DA:4219,0
DA:4221,0
DA:4222,0
DA:4223,0
DA:4224,0
DA:4225,0
DA:4226,0
DA:4227,0
DA:4228,0
DA:4230,0
DA:4231,0
DA:4758,0
DA:4760,0
DA:4761,0
DA:4762,0
DA:4764,0
DA:4765,0
LF:197
LH:0
end_of_record
TN:
SF:/home/kuzz/ImageMagickFuzzing/delegate_libraries/Imath-3.1.9/src/Imath/ImathMatrixAlgo.cpp
FN:1042,1094,_ZN9Imath_3_112_GLOBAL__N_114jacobiRotationILi0ELi1ELi2ELi3EdEEbRNS_8Matrix44IT3_EES5_RNS_4Vec4IS3_EES3_
FN:1042,1094,_ZN9Imath_3_112_GLOBAL__N_114jacobiRotationILi0ELi1ELi2ELi3EfEEbRNS_8Matrix44IT3_EES5_RNS_4Vec4IS3_EES3_
FN:1042,1094,_ZN9Imath_3_112_GLOBAL__N_114jacobiRotationILi0ELi2ELi1ELi3EdEEbRNS_8Matrix44IT3_EES5_RNS_4Vec4IS3_EES3_
FN:1042,1094,_ZN9Imath_3_112_GLOBAL__N_114jacobiRotationILi0ELi2ELi1ELi3EfEEbRNS_8Matrix44IT3_EES5_RNS_4Vec4IS3_EES3_
FN:1042,1094,_ZN9Imath_3_112_GLOBAL__N_114jacobiRotationILi0ELi3ELi1ELi2EdEEbRNS_8Matrix44IT3_EES5_RNS_4Vec4IS3_EES3_
FN:1042,1094,_ZN9Imath_3_112_GLOBAL__N_114jacobiRotationILi0ELi3ELi1ELi2EfEEbRNS_8Matrix44IT3_EES5_RNS_4Vec4IS3_EES3_
FN:1042,1094,_ZN9Imath_3_112_GLOBAL__N_114jacobiRotationILi1ELi2ELi0ELi3EdEEbRNS_8Matrix44IT3_EES5_RNS_4Vec4IS3_EES3_
FN:1042,1094,_ZN9Imath_3_112_GLOBAL__N_114jacobiRotationILi1ELi2ELi0ELi3EfEEbRNS_8Matrix44IT3_EES5_RNS_4Vec4IS3_EES3_
FN:1042,1094,_ZN9Imath_3_112_GLOBAL__N_114jacobiRotationILi1ELi3ELi0ELi2EdEEbRNS_8Matrix44IT3_EES5_RNS_4Vec4IS3_EES3_
FN:1042,1094,_ZN9Imath_3_112_GLOBAL__N_114jacobiRotationILi1ELi3ELi0ELi2EfEEbRNS_8Matrix44IT3_EES5_RNS_4Vec4IS3_EES3_
FN:1042,1094,_ZN9Imath_3_112_GLOBAL__N_114jacobiRotationILi2ELi3ELi0ELi1EdEEbRNS_8Matrix44IT3_EES5_RNS_4Vec4IS3_EES3_
FN:1042,1094,_ZN9Imath_3_112_GLOBAL__N_114jacobiRotationILi2ELi3ELi0ELi1EfEEbRNS_8Matrix44IT3_EES5_RNS_4Vec4IS3_EES3_
FN:1098,1107,_ZN9Imath_3_112_GLOBAL__N_114maxOffDiagSymmINS_8Matrix33IdEEEENT_8BaseTypeERKS4_
FN:1098,1107,_ZN9Imath_3_112_GLOBAL__N_114maxOffDiagSymmINS_8Matrix33IfEEEENT_8BaseTypeERKS4_
FN:1098,1107,_ZN9Imath_3_112_GLOBAL__N_114maxOffDiagSymmINS_8Matrix44IdEEEENT_8BaseTypeERKS4_
FN:1098,1107,_ZN9Imath_3_112_GLOBAL__N_114maxOffDiagSymmINS_8Matrix44IfEEEENT_8BaseTypeERKS4_
FN:1113,1148,_ZN9Imath_3_117jacobiEigenSolverIdEEvRNS_8Matrix33IT_EERNS_4Vec3IS2_EES4_S2_
FN:1113,1148,_ZN9Imath_3_117jacobiEigenSolverIfEEvRNS_8Matrix33IT_EERNS_4Vec3IS2_EES4_S2_
FN:1152,1184,_ZN9Imath_3_117jacobiEigenSolverIdEEvRNS_8Matrix44IT_EERNS_4Vec4IS2_EES4_S2_
FN:1152,1184,_ZN9Imath_3_117jacobiEigenSolverIfEEvRNS_8Matrix44IT_EERNS_4Vec4IS2_EES4_S2_
FN:1188,1203,_ZN9Imath_3_114maxEigenVectorINS_8Matrix33IdEENS_4Vec3IdEEEEvRT_RT0_
FN:1188,1203,_ZN9Imath_3_114maxEigenVectorINS_8Matrix33IfEENS_4Vec3IfEEEEvRT_RT0_
FN:1188,1203,_ZN9Imath_3_114maxEigenVectorINS_8Matrix44IdEENS_4Vec4IdEEEEvRT_RT0_
FN:1188,1203,_ZN9Imath_3_114maxEigenVectorINS_8Matrix44IfEENS_4Vec4IfEEEEvRT_RT0_
FN:1207,1222,_ZN9Imath_3_114minEigenVectorINS_8Matrix33IdEENS_4Vec3IdEEEEvRT_RT0_
FN:1207,1222,_ZN9Imath_3_114minEigenVectorINS_8Matrix33IfEENS_4Vec3IfEEEEvRT_RT0_
FN:1207,1222,_ZN9Imath_3_114minEigenVectorINS_8Matrix44IdEENS_4Vec4IdEEEEvRT_RT0_
FN:1207,1222,_ZN9Imath_3_114minEigenVectorINS_8Matrix44IfEENS_4Vec4IfEEEEvRT_RT0_
FN:238,243,_ZN9Imath_3_132procrustesRotationAndTranslationIdEENS_8Matrix44IdEEPKNS_4Vec3IT_EES7_mb
FN:238,243,_ZN9Imath_3_132procrustesRotationAndTranslationIfEENS_8Matrix44IdEEPKNS_4Vec3IT_EES7_mb
FN:283,292,_ZN9Imath_3_112_GLOBAL__N_117jacobiRotateRightIdLi0ELi1EEEvRNS_8Matrix33IT_EES3_S3_
FN:283,292,_ZN9Imath_3_112_GLOBAL__N_117jacobiRotateRightIdLi0ELi2EEEvRNS_8Matrix33IT_EES3_S3_
FN:283,292,_ZN9Imath_3_112_GLOBAL__N_117jacobiRotateRightIdLi1ELi2EEEvRNS_8Matrix33IT_EES3_S3_
FN:283,292,_ZN9Imath_3_112_GLOBAL__N_117jacobiRotateRightIfLi0ELi1EEEvRNS_8Matrix33IT_EES3_S3_
FN:283,292,_ZN9Imath_3_112_GLOBAL__N_117jacobiRotateRightIfLi0ELi2EEEvRNS_8Matrix33IT_EES3_S3_
FN:283,292,_ZN9Imath_3_112_GLOBAL__N_117jacobiRotateRightIfLi1ELi2EEEvRNS_8Matrix33IT_EES3_S3_
FN:296,309,_ZN9Imath_3_112_GLOBAL__N_117jacobiRotateRightIdEEvRNS_8Matrix44IT_EEiiS3_S3_
FN:296,309,_ZN9Imath_3_112_GLOBAL__N_117jacobiRotateRightIfEEvRNS_8Matrix44IT_EEiiS3_S3_
FN:328,465,_ZN9Imath_3_112_GLOBAL__N_122twoSidedJacobiRotationIdLi0ELi1ELi2EEEbRNS_8Matrix33IT_EES5_S5_S3_
FN:328,465,_ZN9Imath_3_112_GLOBAL__N_122twoSidedJacobiRotationIdLi0ELi2ELi1EEEbRNS_8Matrix33IT_EES5_S5_S3_
FN:328,465,_ZN9Imath_3_112_GLOBAL__N_122twoSidedJacobiRotationIdLi1ELi2ELi0EEEbRNS_8Matrix33IT_EES5_S5_S3_
FN:328,465,_ZN9Imath_3_112_GLOBAL__N_122twoSidedJacobiRotationIfLi0ELi1ELi2EEEbRNS_8Matrix33IT_EES5_S5_S3_
FN:328,465,_ZN9Imath_3_112_GLOBAL__N_122twoSidedJacobiRotationIfLi0ELi2ELi1EEEbRNS_8Matrix33IT_EES5_S5_S3_
FN:328,465,_ZN9Imath_3_112_GLOBAL__N_122twoSidedJacobiRotationIfLi1ELi2ELi0EEEbRNS_8Matrix33IT_EES5_S5_S3_
FN:469,629,_ZN9Imath_3_112_GLOBAL__N_122twoSidedJacobiRotationIdEEbRNS_8Matrix44IT_EEiiS5_S5_S3_
FN:469,629,_ZN9Imath_3_112_GLOBAL__N_122twoSidedJacobiRotationIfEEbRNS_8Matrix44IT_EEiiS5_S5_S3_
FN:54,54,_ZN9Imath_3_112_GLOBAL__N_18KahanSumC2Ev
FN:56,62,_ZN9Imath_3_112_GLOBAL__N_18KahanSumpLEd
FN:633,637,_ZN9Imath_3_112_GLOBAL__N_111swapColumnsIdEEvRNS_8Matrix33IT_EEii
FN:633,637,_ZN9Imath_3_112_GLOBAL__N_111swapColumnsIfEEvRNS_8Matrix33IT_EEii
FN:64,64,_ZNK9Imath_3_112_GLOBAL__N_18KahanSum3getEv
FN:641,651,_ZN9Imath_3_112_GLOBAL__N_110maxOffDiagIdEET_RKNS_8Matrix33IS2_EE
FN:641,651,_ZN9Imath_3_112_GLOBAL__N_110maxOffDiagIfEET_RKNS_8Matrix33IS2_EE
FN:655,668,_ZN9Imath_3_112_GLOBAL__N_110maxOffDiagIdEET_RKNS_8Matrix44IS2_EE
FN:655,668,_ZN9Imath_3_112_GLOBAL__N_110maxOffDiagIfEET_RKNS_8Matrix44IS2_EE
FN:672,794,_ZN9Imath_3_112_GLOBAL__N_117twoSidedJacobiSVDIdEEvNS_8Matrix33IT_EERS4_RNS_4Vec3IS3_EES5_S3_b
FN:672,794,_ZN9Imath_3_112_GLOBAL__N_117twoSidedJacobiSVDIfEEvNS_8Matrix33IT_EERS4_RNS_4Vec3IS3_EES5_S3_b
FN:75,227,_ZN9Imath_3_132procrustesRotationAndTranslationIdEENS_8Matrix44IdEEPKNS_4Vec3IT_EES7_PKS4_mb
FN:75,227,_ZN9Imath_3_132procrustesRotationAndTranslationIfEENS_8Matrix44IdEEPKNS_4Vec3IT_EES7_PKS4_mb
FN:798,906,_ZN9Imath_3_112_GLOBAL__N_117twoSidedJacobiSVDIdEEvNS_8Matrix44IT_EERS4_RNS_4Vec4IS3_EES5_S3_b
FN:798,906,_ZN9Imath_3_112_GLOBAL__N_117twoSidedJacobiSVDIfEEvNS_8Matrix44IT_EERS4_RNS_4Vec4IS3_EES5_S3_b
FN:913,921,_ZN9Imath_3_19jacobiSVDIdEEvRKNS_8Matrix33IT_EERS3_RNS_4Vec3IS2_EES6_S2_b
FN:913,921,_ZN9Imath_3_19jacobiSVDIfEEvRKNS_8Matrix33IT_EERS3_RNS_4Vec3IS2_EES6_S2_b
FN:926,934,_ZN9Imath_3_19jacobiSVDIdEEvRKNS_8Matrix44IT_EERS3_RNS_4Vec4IS2_EES6_S2_b
FN:926,934,_ZN9Imath_3_19jacobiSVDIfEEvRKNS_8Matrix44IT_EERS3_RNS_4Vec4IS2_EES6_S2_b
FN:970,981,_ZN9Imath_3_112_GLOBAL__N_117jacobiRotateRightILi0ELi1ENS_8Matrix33IdEEEEvRT1_NS4_8BaseTypeES6_
FN:970,981,_ZN9Imath_3_112_GLOBAL__N_117jacobiRotateRightILi0ELi1ENS_8Matrix33IfEEEEvRT1_NS4_8BaseTypeES6_
FN:970,981,_ZN9Imath_3_112_GLOBAL__N_117jacobiRotateRightILi0ELi1ENS_8Matrix44IdEEEEvRT1_NS4_8BaseTypeES6_
FN:970,981,_ZN9Imath_3_112_GLOBAL__N_117jacobiRotateRightILi0ELi1ENS_8Matrix44IfEEEEvRT1_NS4_8BaseTypeES6_
FN:970,981,_ZN9Imath_3_112_GLOBAL__N_117jacobiRotateRightILi0ELi2ENS_8Matrix33IdEEEEvRT1_NS4_8BaseTypeES6_
FN:970,981,_ZN9Imath_3_112_GLOBAL__N_117jacobiRotateRightILi0ELi2ENS_8Matrix33IfEEEEvRT1_NS4_8BaseTypeES6_
FN:970,981,_ZN9Imath_3_112_GLOBAL__N_117jacobiRotateRightILi0ELi2ENS_8Matrix44IdEEEEvRT1_NS4_8BaseTypeES6_
FN:970,981,_ZN9Imath_3_112_GLOBAL__N_117jacobiRotateRightILi0ELi2ENS_8Matrix44IfEEEEvRT1_NS4_8BaseTypeES6_
FN:970,981,_ZN9Imath_3_112_GLOBAL__N_117jacobiRotateRightILi0ELi3ENS_8Matrix44IdEEEEvRT1_NS4_8BaseTypeES6_
FN:970,981,_ZN9Imath_3_112_GLOBAL__N_117jacobiRotateRightILi0ELi3ENS_8Matrix44IfEEEEvRT1_NS4_8BaseTypeES6_
FN:970,981,_ZN9Imath_3_112_GLOBAL__N_117jacobiRotateRightILi1ELi2ENS_8Matrix33IdEEEEvRT1_NS4_8BaseTypeES6_
FN:970,981,_ZN9Imath_3_112_GLOBAL__N_117jacobiRotateRightILi1ELi2ENS_8Matrix33IfEEEEvRT1_NS4_8BaseTypeES6_
FN:970,981,_ZN9Imath_3_112_GLOBAL__N_117jacobiRotateRightILi1ELi2ENS_8Matrix44IdEEEEvRT1_NS4_8BaseTypeES6_
FN:970,981,_ZN9Imath_3_112_GLOBAL__N_117jacobiRotateRightILi1ELi2ENS_8Matrix44IfEEEEvRT1_NS4_8BaseTypeES6_
FN:970,981,_ZN9Imath_3_112_GLOBAL__N_117jacobiRotateRightILi1ELi3ENS_8Matrix44IdEEEEvRT1_NS4_8BaseTypeES6_
FN:970,981,_ZN9Imath_3_112_GLOBAL__N_117jacobiRotateRightILi1ELi3ENS_8Matrix44IfEEEEvRT1_NS4_8BaseTypeES6_
FN:970,981,_ZN9Imath_3_112_GLOBAL__N_117jacobiRotateRightILi2ELi3ENS_8Matrix44IdEEEEvRT1_NS4_8BaseTypeES6_
FN:970,981,_ZN9Imath_3_112_GLOBAL__N_117jacobiRotateRightILi2ELi3ENS_8Matrix44IfEEEEvRT1_NS4_8BaseTypeES6_
FN:985,1038,_ZN9Imath_3_112_GLOBAL__N_114jacobiRotationILi0ELi1ELi2EdEEbRNS_8Matrix33IT2_EES5_RNS_4Vec3IS3_EES3_
FN:985,1038,_ZN9Imath_3_112_GLOBAL__N_114jacobiRotationILi0ELi1ELi2EfEEbRNS_8Matrix33IT2_EES5_RNS_4Vec3IS3_EES3_
FN:985,1038,_ZN9Imath_3_112_GLOBAL__N_114jacobiRotationILi0ELi2ELi1EdEEbRNS_8Matrix33IT2_EES5_RNS_4Vec3IS3_EES3_
FN:985,1038,_ZN9Imath_3_112_GLOBAL__N_114jacobiRotationILi0ELi2ELi1EfEEbRNS_8Matrix33IT2_EES5_RNS_4Vec3IS3_EES3_
FN:985,1038,_ZN9Imath_3_112_GLOBAL__N_114jacobiRotationILi1ELi2ELi0EdEEbRNS_8Matrix33IT2_EES5_RNS_4Vec3IS3_EES3_
FN:985,1038,_ZN9Imath_3_112_GLOBAL__N_114jacobiRotationILi1ELi2ELi0EfEEbRNS_8Matrix33IT2_EES5_RNS_4Vec3IS3_EES3_
FNDA:0,_ZN9Imath_3_112_GLOBAL__N_114jacobiRotationILi0ELi1ELi2ELi3EdEEbRNS_8Matrix44IT3_EES5_RNS_4Vec4IS3_EES3_
FNDA:0,_ZN9Imath_3_112_GLOBAL__N_114jacobiRotationILi0ELi1ELi2ELi3EfEEbRNS_8Matrix44IT3_EES5_RNS_4Vec4IS3_EES3_
FNDA:0,_ZN9Imath_3_112_GLOBAL__N_114jacobiRotationILi0ELi2ELi1ELi3EdEEbRNS_8Matrix44IT3_EES5_RNS_4Vec4IS3_EES3_
FNDA:0,_ZN9Imath_3_112_GLOBAL__N_114jacobiRotationILi0ELi2ELi1ELi3EfEEbRNS_8Matrix44IT3_EES5_RNS_4Vec4IS3_EES3_
FNDA:0,_ZN9Imath_3_112_GLOBAL__N_114jacobiRotationILi0ELi3ELi1ELi2EdEEbRNS_8Matrix44IT3_EES5_RNS_4Vec4IS3_EES3_
FNDA:0,_ZN9Imath_3_112_GLOBAL__N_114jacobiRotationILi0ELi3ELi1ELi2EfEEbRNS_8Matrix44IT3_EES5_RNS_4Vec4IS3_EES3_
FNDA:0,_ZN9Imath_3_112_GLOBAL__N_114jacobiRotationILi1ELi2ELi0ELi3EdEEbRNS_8Matrix44IT3_EES5_RNS_4Vec4IS3_EES3_
FNDA:0,_ZN9Imath_3_112_GLOBAL__N_114jacobiRotationILi1ELi2ELi0ELi3EfEEbRNS_8Matrix44IT3_EES5_RNS_4Vec4IS3_EES3_
FNDA:0,_ZN9Imath_3_112_GLOBAL__N_114jacobiRotationILi1ELi3ELi0ELi2EdEEbRNS_8Matrix44IT3_EES5_RNS_4Vec4IS3_EES3_
FNDA:0,_ZN9Imath_3_112_GLOBAL__N_114jacobiRotationILi1ELi3ELi0ELi2EfEEbRNS_8Matrix44IT3_EES5_RNS_4Vec4IS3_EES3_
FNDA:0,_ZN9Imath_3_112_GLOBAL__N_114jacobiRotationILi2ELi3ELi0ELi1EdEEbRNS_8Matrix44IT3_EES5_RNS_4Vec4IS3_EES3_
FNDA:0,_ZN9Imath_3_112_GLOBAL__N_114jacobiRotationILi2ELi3ELi0ELi1EfEEbRNS_8Matrix44IT3_EES5_RNS_4Vec4IS3_EES3_
FNDA:0,_ZN9Imath_3_112_GLOBAL__N_114maxOffDiagSymmINS_8Matrix33IdEEEENT_8BaseTypeERKS4_
FNDA:0,_ZN9Imath_3_112_GLOBAL__N_114maxOffDiagSymmINS_8Matrix33IfEEEENT_8BaseTypeERKS4_
FNDA:0,_ZN9Imath_3_112_GLOBAL__N_114maxOffDiagSymmINS_8Matrix44IdEEEENT_8BaseTypeERKS4_
FNDA:0,_ZN9Imath_3_112_GLOBAL__N_114maxOffDiagSymmINS_8Matrix44IfEEEENT_8BaseTypeERKS4_
FNDA:0,_ZN9Imath_3_117jacobiEigenSolverIdEEvRNS_8Matrix33IT_EERNS_4Vec3IS2_EES4_S2_
FNDA:0,_ZN9Imath_3_117jacobiEigenSolverIfEEvRNS_8Matrix33IT_EERNS_4Vec3IS2_EES4_S2_
FNDA:0,_ZN9Imath_3_117jacobiEigenSolverIdEEvRNS_8Matrix44IT_EERNS_4Vec4IS2_EES4_S2_
FNDA:0,_ZN9Imath_3_117jacobiEigenSolverIfEEvRNS_8Matrix44IT_EERNS_4Vec4IS2_EES4_S2_
FNDA:0,_ZN9Imath_3_114maxEigenVectorINS_8Matrix33IdEENS_4Vec3IdEEEEvRT_RT0_
FNDA:0,_ZN9Imath_3_114maxEigenVectorINS_8Matrix33IfEENS_4Vec3IfEEEEvRT_RT0_
FNDA:0,_ZN9Imath_3_114maxEigenVectorINS_8Matrix44IdEENS_4Vec4IdEEEEvRT_RT0_
FNDA:0,_ZN9Imath_3_114maxEigenVectorINS_8Matrix44IfEENS_4Vec4IfEEEEvRT_RT0_
FNDA:0,_ZN9Imath_3_114minEigenVectorINS_8Matrix33IdEENS_4Vec3IdEEEEvRT_RT0_
FNDA:0,_ZN9Imath_3_114minEigenVectorINS_8Matrix33IfEENS_4Vec3IfEEEEvRT_RT0_
FNDA:0,_ZN9Imath_3_114minEigenVectorINS_8Matrix44IdEENS_4Vec4IdEEEEvRT_RT0_
FNDA:0,_ZN9Imath_3_114minEigenVectorINS_8Matrix44IfEENS_4Vec4IfEEEEvRT_RT0_
FNDA:0,_ZN9Imath_3_132procrustesRotationAndTranslationIdEENS_8Matrix44IdEEPKNS_4Vec3IT_EES7_mb
FNDA:0,_ZN9Imath_3_132procrustesRotationAndTranslationIfEENS_8Matrix44IdEEPKNS_4Vec3IT_EES7_mb
FNDA:0,_ZN9Imath_3_112_GLOBAL__N_117jacobiRotateRightIdLi0ELi1EEEvRNS_8Matrix33IT_EES3_S3_
FNDA:0,_ZN9Imath_3_112_GLOBAL__N_117jacobiRotateRightIdLi0ELi2EEEvRNS_8Matrix33IT_EES3_S3_
FNDA:0,_ZN9Imath_3_112_GLOBAL__N_117jacobiRotateRightIdLi1ELi2EEEvRNS_8Matrix33IT_EES3_S3_
FNDA:0,_ZN9Imath_3_112_GLOBAL__N_117jacobiRotateRightIfLi0ELi1EEEvRNS_8Matrix33IT_EES3_S3_
FNDA:0,_ZN9Imath_3_112_GLOBAL__N_117jacobiRotateRightIfLi0ELi2EEEvRNS_8Matrix33IT_EES3_S3_
FNDA:0,_ZN9Imath_3_112_GLOBAL__N_117jacobiRotateRightIfLi1ELi2EEEvRNS_8Matrix33IT_EES3_S3_
FNDA:0,_ZN9Imath_3_112_GLOBAL__N_117jacobiRotateRightIdEEvRNS_8Matrix44IT_EEiiS3_S3_
FNDA:0,_ZN9Imath_3_112_GLOBAL__N_117jacobiRotateRightIfEEvRNS_8Matrix44IT_EEiiS3_S3_
FNDA:0,_ZN9Imath_3_112_GLOBAL__N_122twoSidedJacobiRotationIdLi0ELi1ELi2EEEbRNS_8Matrix33IT_EES5_S5_S3_
FNDA:0,_ZN9Imath_3_112_GLOBAL__N_122twoSidedJacobiRotationIdLi0ELi2ELi1EEEbRNS_8Matrix33IT_EES5_S5_S3_
FNDA:0,_ZN9Imath_3_112_GLOBAL__N_122twoSidedJacobiRotationIdLi1ELi2ELi0EEEbRNS_8Matrix33IT_EES5_S5_S3_
FNDA:0,_ZN9Imath_3_112_GLOBAL__N_122twoSidedJacobiRotationIfLi0ELi1ELi2EEEbRNS_8Matrix33IT_EES5_S5_S3_
FNDA:0,_ZN9Imath_3_112_GLOBAL__N_122twoSidedJacobiRotationIfLi0ELi2ELi1EEEbRNS_8Matrix33IT_EES5_S5_S3_
FNDA:0,_ZN9Imath_3_112_GLOBAL__N_122twoSidedJacobiRotationIfLi1ELi2ELi0EEEbRNS_8Matrix33IT_EES5_S5_S3_
FNDA:0,_ZN9Imath_3_112_GLOBAL__N_122twoSidedJacobiRotationIdEEbRNS_8Matrix44IT_EEiiS5_S5_S3_
FNDA:0,_ZN9Imath_3_112_GLOBAL__N_122twoSidedJacobiRotationIfEEbRNS_8Matrix44IT_EEiiS5_S5_S3_
FNDA:0,_ZN9Imath_3_112_GLOBAL__N_18KahanSumC2Ev
FNDA:0,_ZN9Imath_3_112_GLOBAL__N_18KahanSumpLEd
FNDA:0,_ZN9Imath_3_112_GLOBAL__N_111swapColumnsIdEEvRNS_8Matrix33IT_EEii
FNDA:0,_ZN9Imath_3_112_GLOBAL__N_111swapColumnsIfEEvRNS_8Matrix33IT_EEii
FNDA:0,_ZNK9Imath_3_112_GLOBAL__N_18KahanSum3getEv
FNDA:0,_ZN9Imath_3_112_GLOBAL__N_110maxOffDiagIdEET_RKNS_8Matrix33IS2_EE
FNDA:0,_ZN9Imath_3_112_GLOBAL__N_110maxOffDiagIfEET_RKNS_8Matrix33IS2_EE
FNDA:0,_ZN9Imath_3_112_GLOBAL__N_110maxOffDiagIdEET_RKNS_8Matrix44IS2_EE
FNDA:0,_ZN9Imath_3_112_GLOBAL__N_110maxOffDiagIfEET_RKNS_8Matrix44IS2_EE
FNDA:0,_ZN9Imath_3_112_GLOBAL__N_117twoSidedJacobiSVDIdEEvNS_8Matrix33IT_EERS4_RNS_4Vec3IS3_EES5_S3_b
FNDA:0,_ZN9Imath_3_112_GLOBAL__N_117twoSidedJacobiSVDIfEEvNS_8Matrix33IT_EERS4_RNS_4Vec3IS3_EES5_S3_b
FNDA:0,_ZN9Imath_3_132procrustesRotationAndTranslationIdEENS_8Matrix44IdEEPKNS_4Vec3IT_EES7_PKS4_mb
FNDA:0,_ZN9Imath_3_132procrustesRotationAndTranslationIfEENS_8Matrix44IdEEPKNS_4Vec3IT_EES7_PKS4_mb
FNDA:0,_ZN9Imath_3_112_GLOBAL__N_117twoSidedJacobiSVDIdEEvNS_8Matrix44IT_EERS4_RNS_4Vec4IS3_EES5_S3_b
FNDA:0,_ZN9Imath_3_112_GLOBAL__N_117twoSidedJacobiSVDIfEEvNS_8Matrix44IT_EERS4_RNS_4Vec4IS3_EES5_S3_b
FNDA:0,_ZN9Imath_3_19jacobiSVDIdEEvRKNS_8Matrix33IT_EERS3_RNS_4Vec3IS2_EES6_S2_b
FNDA:0,_ZN9Imath_3_19jacobiSVDIfEEvRKNS_8Matrix33IT_EERS3_RNS_4Vec3IS2_EES6_S2_b
FNDA:0,_ZN9Imath_3_19jacobiSVDIdEEvRKNS_8Matrix44IT_EERS3_RNS_4Vec4IS2_EES6_S2_b
FNDA:0,_ZN9Imath_3_19jacobiSVDIfEEvRKNS_8Matrix44IT_EERS3_RNS_4Vec4IS2_EES6_S2_b
FNDA:0,_ZN9Imath_3_112_GLOBAL__N_117jacobiRotateRightILi0ELi1ENS_8Matrix33IdEEEEvRT1_NS4_8BaseTypeES6_
FNDA:0,_ZN9Imath_3_112_GLOBAL__N_117jacobiRotateRightILi0ELi1ENS_8Matrix33IfEEEEvRT1_NS4_8BaseTypeES6_
FNDA:0,_ZN9Imath_3_112_GLOBAL__N_117jacobiRotateRightILi0ELi1ENS_8Matrix44IdEEEEvRT1_NS4_8BaseTypeES6_
FNDA:0,_ZN9Imath_3_112_GLOBAL__N_117jacobiRotateRightILi0ELi1ENS_8Matrix44IfEEEEvRT1_NS4_8BaseTypeES6_
FNDA:0,_ZN9Imath_3_112_GLOBAL__N_117jacobiRotateRightILi0ELi2ENS_8Matrix33IdEEEEvRT1_NS4_8BaseTypeES6_
FNDA:0,_ZN9Imath_3_112_GLOBAL__N_117jacobiRotateRightILi0ELi2ENS_8Matrix33IfEEEEvRT1_NS4_8BaseTypeES6_
FNDA:0,_ZN9Imath_3_112_GLOBAL__N_117jacobiRotateRightILi0ELi2ENS_8Matrix44IdEEEEvRT1_NS4_8BaseTypeES6_
FNDA:0,_ZN9Imath_3_112_GLOBAL__N_117jacobiRotateRightILi0ELi2ENS_8Matrix44IfEEEEvRT1_NS4_8BaseTypeES6_
FNDA:0,_ZN9Imath_3_112_GLOBAL__N_117jacobiRotateRightILi0ELi3ENS_8Matrix44IdEEEEvRT1_NS4_8BaseTypeES6_
FNDA:0,_ZN9Imath_3_112_GLOBAL__N_117jacobiRotateRightILi0ELi3ENS_8Matrix44IfEEEEvRT1_NS4_8BaseTypeES6_
FNDA:0,_ZN9Imath_3_112_GLOBAL__N_117jacobiRotateRightILi1ELi2ENS_8Matrix33IdEEEEvRT1_NS4_8BaseTypeES6_
FNDA:0,_ZN9Imath_3_112_GLOBAL__N_117jacobiRotateRightILi1ELi2ENS_8Matrix33IfEEEEvRT1_NS4_8BaseTypeES6_
FNDA:0,_ZN9Imath_3_112_GLOBAL__N_117jacobiRotateRightILi1ELi2ENS_8Matrix44IdEEEEvRT1_NS4_8BaseTypeES6_
FNDA:0,_ZN9Imath_3_112_GLOBAL__N_117jacobiRotateRightILi1ELi2ENS_8Matrix44IfEEEEvRT1_NS4_8BaseTypeES6_
FNDA:0,_ZN9Imath_3_112_GLOBAL__N_117jacobiRotateRightILi1ELi3ENS_8Matrix44IdEEEEvRT1_NS4_8BaseTypeES6_
FNDA:0,_ZN9Imath_3_112_GLOBAL__N_117jacobiRotateRightILi1ELi3ENS_8Matrix44IfEEEEvRT1_NS4_8BaseTypeES6_
FNDA:0,_ZN9Imath_3_112_GLOBAL__N_117jacobiRotateRightILi2ELi3ENS_8Matrix44IdEEEEvRT1_NS4_8BaseTypeES6_
FNDA:0,_ZN9Imath_3_112_GLOBAL__N_117jacobiRotateRightILi2ELi3ENS_8Matrix44IfEEEEvRT1_NS4_8BaseTypeES6_
FNDA:0,_ZN9Imath_3_112_GLOBAL__N_114jacobiRotationILi0ELi1ELi2EdEEbRNS_8Matrix33IT2_EES5_RNS_4Vec3IS3_EES3_
FNDA:0,_ZN9Imath_3_112_GLOBAL__N_114jacobiRotationILi0ELi1ELi2EfEEbRNS_8Matrix33IT2_EES5_RNS_4Vec3IS3_EES3_
FNDA:0,_ZN9Imath_3_112_GLOBAL__N_114jacobiRotationILi0ELi2ELi1EdEEbRNS_8Matrix33IT2_EES5_RNS_4Vec3IS3_EES3_
FNDA:0,_ZN9Imath_3_112_GLOBAL__N_114jacobiRotationILi0ELi2ELi1EfEEbRNS_8Matrix33IT2_EES5_RNS_4Vec3IS3_EES3_
FNDA:0,_ZN9Imath_3_112_GLOBAL__N_114jacobiRotationILi1ELi2ELi0EdEEbRNS_8Matrix33IT2_EES5_RNS_4Vec3IS3_EES3_
FNDA:0,_ZN9Imath_3_112_GLOBAL__N_114jacobiRotationILi1ELi2ELi0EfEEbRNS_8Matrix33IT2_EES5_RNS_4Vec3IS3_EES3_
FNF:89
FNH:0
DA:54,0
DA:56,0
DA:58,0
DA:59,0
DA:60,0
DA:61,0
DA:62,0
DA:64,0
DA:75,0
DA:81,0
DA:82,0
DA:85,0
DA:86,0
DA:87,0
DA:89,0
DA:91,0
DA:93,0
DA:94,0
DA:95,0
DA:96,0
DA:97,0
DA:100,0
DA:102,0
DA:103,0
DA:105,0
DA:106,0
DA:107,0
DA:110,0
DA:111,0
DA:113,0
DA:114,0
DA:125,0
DA:126,0
DA:128,0
DA:129,0
DA:130,0
DA:133,0
DA:135,0
DA:136,0
DA:137,0
DA:140,0
DA:141,0
DA:142,0
DA:146,0
DA:148,0
DA:149,0
DA:170,0
DA:171,0
DA:173,0
DA:174,0
DA:175,0
DA:178,0
DA:179,0
DA:182,0
DA:183,0
DA:184,0
DA:185,0
DA:187,0
DA:188,0
DA:209,0
DA:211,0
DA:212,0
DA:213,0
DA:215,0
DA:216,0
DA:217,0
DA:219,0
DA:220,0
DA:221,0
DA:223,0
DA:224,0
DA:225,0
DA:227,0
DA:238,0
DA:243,0
DA:283,0
DA:285,0
DA:287,0
DA:288,0
DA:289,0
DA:290,0
DA:291,0
DA:292,0
DA:296,0
DA:302,0
DA:304,0
DA:305,0
DA:306,0
DA:307,0
DA:308,0
DA:309,0
DA:328,0
DA:335,0
DA:336,0
DA:337,0
DA:338,0
DA:343,0
DA:348,0
DA:349,0
DA:351,0
DA:352,0
DA:354,0
DA:355,0
DA:357,0
DA:358,0
DA:359,0
DA:360,0
DA:361,0
DA:365,0
DA:367,0
DA:368,0
DA:369,0
DA:370,0
DA:372,0
DA:373,0
DA:375,0
DA:376,0
DA:381,0
DA:382,0
DA:384,0
DA:385,0
DA:386,0
DA:389,0
DA:390,0
DA:391,0
DA:392,0
DA:393,0
DA:394,0
DA:396,0
DA:397,0
DA:399,0
DA:400,0
DA:402,0
DA:408,0
DA:409,0
DA:410,0
DA:413,0
DA:414,0
DA:418,0
DA:419,0
DA:420,0
DA:421,0
DA:431,0
DA:432,0
DA:433,0
DA:434,0
DA:435,0
DA:444,0
DA:445,0
DA:446,0
DA:447,0
DA:448,0
DA:461,0
DA:462,0
DA:464,0
DA:465,0
DA:469,0
DA:478,0
DA:479,0
DA:480,0
DA:481,0
DA:486,0
DA:491,0
DA:492,0
DA:494,0
DA:495,0
DA:497,0
DA:498,0
DA:500,0
DA:501,0
DA:502,0
DA:503,0
DA:504,0
DA:508,0
DA:510,0
DA:511,0
DA:512,0
DA:513,0
DA:515,0
DA:516,0
DA:518,0
DA:519,0
DA:524,0
DA:525,0
DA:527,0
DA:528,0
DA:529,0
DA:532,0
DA:533,0
DA:534,0
DA:535,0
DA:536,0
DA:537,0
DA:539,0
DA:540,0
DA:542,0
DA:543,0
DA:545,0
DA:551,0
DA:552,0
DA:553,0
DA:556,0
DA:557,0
DA:561,0
DA:562,0
DA:563,0
DA:564,0
DA:567,0
DA:569,0
DA:570,0
DA:584,0
DA:585,0
DA:586,0
DA:587,0
DA:588,0
DA:590,0
DA:593,0
DA:594,0
DA:608,0
DA:609,0
DA:610,0
DA:611,0
DA:612,0
DA:625,0
DA:626,0
DA:628,0
DA:629,0
DA:633,0
DA:635,0
DA:636,0
DA:637,0
DA:641,0
DA:643,0
DA:644,0
DA:645,0
DA:646,0
DA:647,0
DA:648,0
DA:649,0
DA:650,0
DA:651,0
DA:655,0
DA:657,0
DA:658,0
DA:660,0
DA:662,0
DA:663,0
DA:664,0
DA:665,0
DA:667,0
DA:668,0
DA:672,0
DA:708,0
DA:709,0
DA:711,0
DA:712,0
DA:713,0
DA:715,0
DA:716,0
DA:718,0
DA:719,0
DA:720,0
DA:721,0
DA:722,0
DA:723,0
DA:724,0
DA:725,0
DA:729,0
DA:730,0
DA:731,0
DA:736,0
DA:738,0
DA:742,0
DA:743,0
DA:744,0
DA:745,0
DA:746,0
DA:750,0
DA:752,0
DA:756,0
DA:760,0
DA:761,0
DA:762,0
DA:763,0
DA:764,0
DA:765,0
DA:767,0
DA:780,0
DA:782,0
DA:783,0
DA:784,0
DA:785,0
DA:787,0
DA:789,0
DA:790,0
DA:791,0
DA:792,0
DA:793,0
DA:794,0
DA:798,0
DA:806,0
DA:807,0
DA:809,0
DA:810,0
DA:811,0
DA:813,0
DA:814,0
DA:816,0
DA:817,0
DA:818,0
DA:819,0
DA:820,0
DA:821,0
DA:822,0
DA:823,0
DA:824,0
DA:825,0
DA:826,0
DA:830,0
DA:831,0
DA:832,0
DA:833,0
DA:838,0
DA:840,0
DA:844,0
DA:845,0
DA:846,0
DA:847,0
DA:848,0
DA:851,0
DA:853,0
DA:854,0
DA:855,0
DA:857,0
DA:858,0
DA:860,0
DA:861,0
DA:862,0
DA:863,0
DA:864,0
DA:866,0
DA:867,0
DA:868,0
DA:871,0
DA:872,0
DA:873,0
DA:874,0
DA:875,0
DA:876,0
DA:878,0
DA:892,0
DA:894,0
DA:895,0
DA:896,0
DA:897,0
DA:899,0
DA:901,0
DA:902,0
DA:903,0
DA:904,0
DA:905,0
DA:906,0
DA:913,0
DA:920,0
DA:921,0
DA:926,0
DA:933,0
DA:934,0
DA:970,0
DA:974,0
DA:976,0
DA:977,0
DA:978,0
DA:979,0
DA:980,0
DA:981,0
DA:985,0
DA:989,0
DA:990,0
DA:991,0
DA:996,0
DA:997,0
DA:999,0
DA:1005,0
DA:1006,0
DA:1008,0
DA:1009,0
DA:1010,0
DA:1011,0
DA:1012,0
DA:1013,0
DA:1016,0
DA:1017,0
DA:1018,0
DA:1019,0
DA:1023,0
DA:1027,0
DA:1028,0
DA:1029,0
DA:1030,0
DA:1031,0
DA:1032,0
DA:1035,0
DA:1037,0
DA:1038,0
DA:1042,0
DA:1044,0
DA:1045,0
DA:1046,0
DA:1048,0
DA:1049,0
DA:1054,0
DA:1056,0
DA:1057,0
DA:1060,0
DA:1061,0
DA:1062,0
DA:1063,0
DA:1064,0
DA:1065,0
DA:1067,0
DA:1068,0
DA:1069,0
DA:1070,0
DA:1071,0
DA:1074,0
DA:1075,0
DA:1076,0
DA:1077,0
DA:1078,0
DA:1079,0
DA:1080,0
DA:1083,0
DA:1084,0
DA:1085,0
DA:1086,0
DA:1087,0
DA:1088,0
DA:1089,0
DA:1091,0
DA:1093,0
DA:1094,0
DA:1098,0
DA:1101,0
DA:1102,0
DA:1103,0
DA:1104,0
DA:1106,0
DA:1107,0
DA:1113,0
DA:1115,0
DA:1116,0
DA:1118,0
DA:1119,0
DA:1121,0
DA:1122,0
DA:1123,0
DA:1125,0
DA:1126,0
DA:1133,0
DA:1134,0
DA:1135,0
DA:1136,0
DA:1137,0
DA:1140,0
DA:1142,0
DA:1143,0
DA:1144,0
DA:1145,0
DA:1146,0
DA:1147,0
DA:1148,0
DA:1152,0
DA:1154,0
DA:1156,0
DA:1158,0
DA:1159,0
DA:1161,0
DA:1162,0
DA:1163,0
DA:1165,0
DA:1166,0
DA:1168,0
DA:1169,0
DA:1170,0
DA:1171,0
DA:1172,0
DA:1173,0
DA:1174,0
DA:1175,0
DA:1176,0
DA:1178,0
DA:1179,0
DA:1180,0
DA:1181,0
DA:1182,0
DA:1183,0
DA:1184,0
DA:1188,0
DA:1190,0
DA:1191,0
DA:1192,0
DA:1194,0
DA:1195,0
DA:1197,0
DA:1198,0
DA:1199,0
DA:1201,0
DA:1202,0
DA:1203,0
DA:1207,0
DA:1209,0
DA:1210,0
DA:1211,0
DA:1213,0
DA:1214,0
DA:1216,0
DA:1217,0
DA:1218,0
DA:1220,0
DA:1221,0
DA:1222,0
LF:522
LH:0
end_of_record
TN:
SF:/home/kuzz/ImageMagickFuzzing/delegate_libraries/Imath-3.1.9/src/Imath/ImathMatrixAlgo.h
FN:1350,1360,_ZN9Imath_3_112outerProductIdEENS_8Matrix33IT_EERKNS_4Vec3IS2_EES7_
FN:1475,1478,_ZN9Imath_3_117jacobiEigenSolverIdEEvRNS_8Matrix33IT_EERNS_4Vec3IS2_EES4_
FN:1475,1478,_ZN9Imath_3_117jacobiEigenSolverIfEEvRNS_8Matrix33IT_EERNS_4Vec3IS2_EES4_
FN:1502,1505,_ZN9Imath_3_117jacobiEigenSolverIdEEvRNS_8Matrix44IT_EERNS_4Vec4IS2_EES4_
FN:1502,1505,_ZN9Imath_3_117jacobiEigenSolverIfEEvRNS_8Matrix44IT_EERNS_4Vec4IS2_EES4_
FNDA:0,_ZN9Imath_3_112outerProductIdEENS_8Matrix33IT_EERKNS_4Vec3IS2_EES7_
FNDA:0,_ZN9Imath_3_117jacobiEigenSolverIdEEvRNS_8Matrix33IT_EERNS_4Vec3IS2_EES4_
FNDA:0,_ZN9Imath_3_117jacobiEigenSolverIfEEvRNS_8Matrix33IT_EERNS_4Vec3IS2_EES4_
FNDA:0,_ZN9Imath_3_117jacobiEigenSolverIdEEvRNS_8Matrix44IT_EERNS_4Vec4IS2_EES4_
FNDA:0,_ZN9Imath_3_117jacobiEigenSolverIfEEvRNS_8Matrix44IT_EERNS_4Vec4IS2_EES4_
FNF:5
FNH:0
DA:1350,0
DA:1352,0
DA:1353,0
DA:1354,0
DA:1355,0
DA:1356,0
DA:1357,0
DA:1358,0
DA:1359,0
DA:1360,0
DA:1475,0
DA:1477,0
DA:1478,0
DA:1502,0
DA:1504,0
DA:1505,0
LF:16
LH:0
end_of_record
TN:
SF:/home/kuzz/ImageMagickFuzzing/delegate_libraries/Imath-3.1.9/src/Imath/ImathRandom.cpp
FN:110,112,_ZN9Imath_3_17drand48Ev
FN:117,123,_ZN9Imath_3_17nrand48EPt
FN:129,131,_ZN9Imath_3_17lrand48Ev
FN:135,140,_ZN9Imath_3_17srand48El
FN:143,168,_ZN9Imath_3_16Rand325nextfEv
FN:27,69,_ZN9Imath_3_112_GLOBAL__N_110rand48NextEPt
FN:87,106,_ZN9Imath_3_17erand48EPt
FNDA:0,_ZN9Imath_3_17drand48Ev
FNDA:0,_ZN9Imath_3_17nrand48EPt
FNDA:0,_ZN9Imath_3_17lrand48Ev
FNDA:0,_ZN9Imath_3_17srand48El
FNDA:0,_ZN9Imath_3_16Rand325nextfEv
FNDA:0,_ZN9Imath_3_112_GLOBAL__N_110rand48NextEPt
FNDA:0,_ZN9Imath_3_17erand48EPt
FNF:7
FNH:0
DA:27,0
DA:47,0
DA:48,0
DA:49,0
DA:56,0
DA:66,0
DA:67,0
DA:68,0
DA:69,0
DA:87,0
DA:89,0
DA:91,0
DA:98,0
DA:99,0
DA:100,0
DA:101,0
DA:102,0
DA:105,0
DA:106,0
DA:110,0
DA:112,0
DA:117,0
DA:119,0
DA:122,0
DA:123,0
DA:129,0
DA:131,0
DA:135,0
DA:137,0
DA:138,0
DA:139,0
DA:140,0
DA:143,0
DA:158,0
DA:160,0
DA:166,0
DA:167,0
DA:168,0
LF:38
LH:0
end_of_record
TN:
SF:/home/kuzz/ImageMagickFuzzing/delegate_libraries/Imath-3.1.9/src/Imath/ImathRandom.h
FN:134,137,_ZN9Imath_3_16Rand324nextEv
FNDA:0,_ZN9Imath_3_16Rand324nextEv
FNF:1
FNH:0
DA:134,0
DA:136,0
DA:137,0
LF:3
LH:0
end_of_record
TN:
SF:/home/kuzz/ImageMagickFuzzing/delegate_libraries/Imath-3.1.9/src/Imath/ImathVec.h
FN:1371,1373,_ZN9Imath_3_14Vec3IdEixEi
FN:1371,1373,_ZN9Imath_3_14Vec3IfEixEi
FN:1383,1386,_ZN9Imath_3_14Vec3IdEC2Ev
FN:1383,1386,_ZN9Imath_3_14Vec3IfEC2Ev
FN:1388,1391,_ZN9Imath_3_14Vec3IdEC2Ed
FN:1393,1396,_ZN9Imath_3_14Vec3IdEC2Eddd
FN:1393,1396,_ZN9Imath_3_14Vec3IfEC2Efff
FN:1398,1401,_ZN9Imath_3_14Vec3IdEC2ERKS1_
FN:1404,1407,_ZN9Imath_3_14Vec3IdEC2IfEERKNS0_IT_EE
FN:1543,1545,_ZNK9Imath_3_14Vec3IdE3dotERKS1_
FN:1584,1589,_ZN9Imath_3_14Vec3IdEpLERKS1_
FN:1611,1613,_ZNK9Imath_3_14Vec3IdEmiERKS1_
FN:1679,1684,_ZN9Imath_3_14Vec3IdEdVEd
FN:1747,1749,_ZNK9Imath_3_14Vec3IdE7length2Ev
FN:1839,1841,_ZN9Imath_3_14Vec4IdEixEi
FN:1839,1841,_ZN9Imath_3_14Vec4IfEixEi
FN:1846,1848,_ZNK9Imath_3_14Vec4IdEixEi
FN:1846,1848,_ZNK9Imath_3_14Vec4IfEixEi
FN:1851,1854,_ZN9Imath_3_14Vec4IdEC2Ev
FN:1851,1854,_ZN9Imath_3_14Vec4IfEC2Ev
FN:1861,1864,_ZN9Imath_3_14Vec4IdEC2Edddd
FN:1861,1864,_ZN9Imath_3_14Vec4IfEC2Effff
FN:2249,2251,_ZN9Imath_3_1mlIdEENS_4Vec3IT_EES2_RKS3_
FN:561,561,_ZN9Imath_3_14Vec3IdE10dimensionsEv
FN:561,561,_ZN9Imath_3_14Vec3IfE10dimensionsEv
FN:793,793,_ZN9Imath_3_14Vec4IdE10dimensionsEv
FN:793,793,_ZN9Imath_3_14Vec4IfE10dimensionsEv
FNDA:0,_ZN9Imath_3_14Vec3IdEixEi
FNDA:0,_ZN9Imath_3_14Vec3IfEixEi
FNDA:0,_ZN9Imath_3_14Vec3IdEC2Ev
FNDA:0,_ZN9Imath_3_14Vec3IfEC2Ev
FNDA:0,_ZN9Imath_3_14Vec3IdEC2Ed
FNDA:0,_ZN9Imath_3_14Vec3IdEC2Eddd
FNDA:0,_ZN9Imath_3_14Vec3IfEC2Efff
FNDA:0,_ZN9Imath_3_14Vec3IdEC2ERKS1_
FNDA:0,_ZN9Imath_3_14Vec3IdEC2IfEERKNS0_IT_EE
FNDA:0,_ZNK9Imath_3_14Vec3IdE3dotERKS1_
FNDA:0,_ZN9Imath_3_14Vec3IdEpLERKS1_
FNDA:0,_ZNK9Imath_3_14Vec3IdEmiERKS1_
FNDA:0,_ZN9Imath_3_14Vec3IdEdVEd
FNDA:0,_ZNK9Imath_3_14Vec3IdE7length2Ev
FNDA:0,_ZN9Imath_3_14Vec4IdEixEi
FNDA:0,_ZN9Imath_3_14Vec4IfEixEi
FNDA:0,_ZNK9Imath_3_14Vec4IdEixEi
FNDA:0,_ZNK9Imath_3_14Vec4IfEixEi
FNDA:0,_ZN9Imath_3_14Vec4IdEC2Ev
FNDA:0,_ZN9Imath_3_14Vec4IfEC2Ev
FNDA:0,_ZN9Imath_3_14Vec4IdEC2Edddd
FNDA:0,_ZN9Imath_3_14Vec4IfEC2Effff
FNDA:0,_ZN9Imath_3_1mlIdEENS_4Vec3IT_EES2_RKS3_
FNDA:0,_ZN9Imath_3_14Vec3IdE10dimensionsEv
FNDA:0,_ZN9Imath_3_14Vec3IfE10dimensionsEv
FNDA:0,_ZN9Imath_3_14Vec4IdE10dimensionsEv
FNDA:0,_ZN9Imath_3_14Vec4IfE10dimensionsEv
FNF:27
FNH:0
DA:561,0
DA:793,0
DA:1371,0
DA:1373,0
DA:1383,0
DA:1386,0
DA:1388,0
DA:1389,0
DA:1391,0
DA:1393,0
DA:1394,0
DA:1396,0
DA:1398,0
DA:1399,0
DA:1401,0
DA:1404,0
DA:1405,0
DA:1407,0
DA:1543,0
DA:1545,0
DA:1584,0
DA:1586,0
DA:1587,0
DA:1588,0
DA:1589,0
DA:1611,0
DA:1613,0
DA:1679,0
DA:1681,0
DA:1682,0
DA:1683,0
DA:1684,0
DA:1747,0
DA:1749,0
DA:1839,0
DA:1841,0
DA:1846,0
DA:1848,0
DA:1851,0
DA:1854,0
DA:1861,0
DA:1862,0
DA:1864,0
DA:2249,0
DA:2251,0
LF:45
LH:0
end_of_record
TN:
SF:/home/kuzz/ImageMagickFuzzing/delegate_libraries/Imath-3.1.9/src/Imath/half.cpp
FN:106,119,_Z9printBitsPcN9Imath_3_14halfE
FN:122,136,_Z9printBitsPcf
FN:56,59,_ZlsRSoN9Imath_3_14halfE
FN:63,69,_ZrsRSiRN9Imath_3_14halfE
FN:77,88,_Z9printBitsRSoN9Imath_3_14halfE
FN:91,103,_Z9printBitsRSof
FNDA:0,_Z9printBitsPcN9Imath_3_14halfE
FNDA:0,_Z9printBitsPcf
FNDA:0,_ZlsRSoN9Imath_3_14halfE
FNDA:0,_ZrsRSiRN9Imath_3_14halfE
FNDA:0,_Z9printBitsRSoN9Imath_3_14halfE
FNDA:0,_Z9printBitsRSof
FNF:6
FNH:0
DA:56,0
DA:58,0
DA:59,0
DA:63,0
DA:65,0
DA:66,0
DA:67,0
DA:68,0
DA:69,0
DA:77,0
DA:79,0
DA:81,0
DA:83,0
DA:85,0
DA:86,0
DA:87,0
DA:88,0
DA:91,0
DA:93,0
DA:94,0
DA:96,0
DA:98,0
DA:100,0
DA:101,0
DA:102,0
DA:103,0
DA:106,0
DA:108,0
DA:110,0
DA:112,0
DA:114,0
DA:115,0
DA:116,0
DA:118,0
DA:119,0
DA:122,0
DA:124,0
DA:125,0
DA:127,0
DA:129,0
DA:131,0
DA:132,0
DA:133,0
DA:135,0
DA:136,0
LF:45
LH:0
end_of_record
TN:
SF:/home/kuzz/ImageMagickFuzzing/delegate_libraries/Imath-3.1.9/src/Imath/half.h
FN:285,300,_ZL19imath_half_to_floatt
FN:367,438,_ZL19imath_float_to_halff
FN:647,650,_ZN9Imath_3_14halfC2Ef
FN:663,665,_ZNK9Imath_3_14halfcvfEv
FN:877,879,_ZNK9Imath_3_14half4bitsEv
FNDA:0,_ZL19imath_half_to_floatt
FNDA:0,_ZL19imath_float_to_halff
FNDA:0,_ZN9Imath_3_14halfC2Ef
FNDA:0,_ZNK9Imath_3_14halfcvfEv
FNDA:0,_ZNK9Imath_3_14half4bitsEv
FNF:5
FNH:0
DA:285,0
DA:300,0
DA:367,0
DA:380,0
DA:381,0
DA:382,0
DA:384,0
DA:386,0
DA:387,0
DA:390,0
DA:393,0
DA:395,0
DA:396,0
DA:397,0
DA:398,0
DA:400,0
DA:404,0
DA:409,0
DA:412,0
DA:413,0
DA:414,0
DA:418,0
DA:425,0
DA:429,0
DA:430,0
DA:431,0
DA:432,0
DA:433,0
DA:434,0
DA:435,0
DA:436,0
DA:438,0
DA:647,0
DA:648,0
DA:650,0
DA:663,0
DA:665,0
DA:877,0
DA:879,0
LF:39
LH:0
end_of_record
TN:
SF:/usr/include/c++/13/bits/ios_base.h
FN:755,756,_ZNKSt8ios_base5widthEv
FNDA:0,_ZNKSt8ios_base5widthEv
FNF:1
FNH:0
DA:755,0
DA:756,0
LF:2
LH:0
end_of_record
TN:
SF:/usr/include/c++/13/bits/move.h
FN:189,200,_ZSt4swapIdENSt9enable_ifIXsr6__and_ISt6__not_ISt15__is_tuple_likeIT_EESt21is_move_constructibleIS3_ESt18is_move_assignableIS3_EEE5valueEvE4typeERS3_SC_
FN:189,200,_ZSt4swapIfENSt9enable_ifIXsr6__and_ISt6__not_ISt15__is_tuple_likeIT_EESt21is_move_constructibleIS3_ESt18is_move_assignableIS3_EEE5valueEvE4typeERS3_SC_
FNDA:0,_ZSt4swapIdENSt9enable_ifIXsr6__and_ISt6__not_ISt15__is_tuple_likeIT_EESt21is_move_constructibleIS3_ESt18is_move_assignableIS3_EEE5valueEvE4typeERS3_SC_
FNDA:0,_ZSt4swapIfENSt9enable_ifIXsr6__and_ISt6__not_ISt15__is_tuple_likeIT_EESt21is_move_constructibleIS3_ESt18is_move_assignableIS3_EEE5valueEvE4typeERS3_SC_
FNF:2
FNH:0
DA:189,0
DA:197,0
DA:198,0
DA:199,0
DA:200,0
LF:5
LH:0
end_of_record
TN:
SF:/usr/include/c++/13/bits/std_abs.h
FN:71,72,_ZSt3absd
FN:75,76,_ZSt3absf
FNDA:0,_ZSt3absd
FNDA:0,_ZSt3absf
FNF:2
FNH:0
DA:71,0
DA:72,0
DA:75,0
DA:76,0
LF:4
LH:0
end_of_record
TN:
SF:/usr/include/c++/13/bits/stl_algobase.h
FN:257,265,_ZSt3maxIdERKT_S2_S2_
FN:257,265,_ZSt3maxIfERKT_S2_S2_
FNDA:0,_ZSt3maxIdERKT_S2_S2_
FNDA:0,_ZSt3maxIfERKT_S2_S2_
FNF:2
FNH:0
DA:257,0
DA:262,0
DA:263,0
DA:264,0
DA:265,0
LF:5
LH:0
end_of_record
TN:
SF:/usr/include/c++/13/cmath
FN:1144,_ZSt5isinff
FN:1152,_ZSt5isinfd
FN:1171,_ZSt5isnanf
FN:1179,_ZSt5isnand
FN:438,_ZSt4sqrtf
FNDA:0,_ZSt5isinff
FNDA:0,_ZSt5isinfd
FNDA:0,_ZSt5isnanf
FNDA:0,_ZSt5isnand
FNDA:0,_ZSt4sqrtf
FNF:5
FNH:0
DA:438,0
DA:439,0
DA:1144,0
DA:1145,0
DA:1152,0
DA:1153,0
DA:1171,0
DA:1172,0
DA:1179,0
DA:1180,0
LF:10
LH:0
end_of_record
TN:
SF:/usr/include/c++/13/istream
FN:216,_ZNSirsERf
FNDA:0,_ZNSirsERf
FNF:1
FNH:0
DA:216,0
DA:217,0
LF:2
LH:0
end_of_record
TN:
SF:/usr/include/c++/13/limits
FN:1697,_ZNSt14numeric_limitsIfE7epsilonEv
FN:1772,_ZNSt14numeric_limitsIdE7epsilonEv
FNDA:0,_ZNSt14numeric_limitsIfE7epsilonEv
FNDA:0,_ZNSt14numeric_limitsIdE7epsilonEv
FNF:2
FNH:0
DA:1697,0
DA:1772,0
LF:2
LH:0
end_of_record
TN:
SF:/usr/include/c++/13/ostream
FN:226,_ZNSolsEf
FN:570,_ZStlsISt11char_traitsIcEERSt13basic_ostreamIcT_ES5_c
FNDA:0,_ZNSolsEf
FNDA:0,_ZStlsISt11char_traitsIcEERSt13basic_ostreamIcT_ES5_c
FNF:2
FNH:0
DA:226,0
DA:230,0
DA:570,0
DA:572,0
DA:573,0
DA:574,0
DA:575,0
DA:576,0
LF:8
LH:0
end_of_record
